target datalayout = "e-m:e-p270:32:32-p271:32:32-p272:64:64-i64:64-i128:128-f80:128-n8:16:32:64-S128"
target triple = "x86_64-pc-linux-gnu"

%struct.expert_field = type { i32, i32 }

@.str.74 = private unnamed_addr constant [9 x i8] c"Reserved\00", align 1
@hf_ansi_801_cancellation_type = internal global i32 0, align 4
@hf_ansi_801_no_outstanding_request_element = internal global i32 0, align 4
@hf_ansi_801_reserved8_07 = internal global i32 0, align 4
@ei_ansi_801_extraneous_data = internal global %struct.expert_field zeroinitializer, align 4
@ei_ansi_801_short_data = internal global %struct.expert_field zeroinitializer, align 4
@.str.258 = private unnamed_addr constant [8 x i8] c"(%u) %s\00", align 1

; Function Attrs: null_pointer_is_valid sspstrong uwtable
define internal void @rev_pr_can_ack(ptr noundef %0, ptr noundef %1, ptr noundef %2, i32 noundef %3, i32 noundef %4) #0 {
  %6 = alloca ptr, align 8
  %7 = alloca ptr, align 8
  %8 = alloca ptr, align 8
  %9 = alloca i32, align 4
  %10 = alloca i32, align 4
  %11 = alloca i8, align 1
  %12 = alloca i32, align 4
  %13 = alloca ptr, align 8
  %14 = alloca i32, align 4
  store ptr %0, ptr %6, align 8
  store ptr %1, ptr %7, align 8
  store ptr %2, ptr %8, align 8
  store i32 %3, ptr %9, align 4
  store i32 %4, ptr %10, align 4
  call void @llvm.lifetime.start.p0(i64 1, ptr %11) #6
  call void @llvm.lifetime.start.p0(i64 4, ptr %12) #6
  call void @llvm.lifetime.start.p0(i64 8, ptr %13) #6
  %15 = load i32, ptr %10, align 4
  store i32 %15, ptr %12, align 4
  %16 = load i32, ptr %9, align 4
  %17 = icmp ult i32 %16, 1
  br i1 %17, label %18, label %25

18:                                               ; preds = %5
  %19 = load ptr, ptr %8, align 8
  %20 = load ptr, ptr %7, align 8
  %21 = load ptr, ptr %6, align 8
  %22 = load i32, ptr %10, align 4
  %23 = load i32, ptr %9, align 4
  %24 = call ptr @proto_tree_add_expert(ptr noundef %19, ptr noundef %20, ptr noundef @ei_ansi_801_short_data, ptr noundef %21, i32 noundef %22, i32 noundef %23)
  store i32 1, ptr %14, align 4
  br label %75

25:                                               ; preds = %5
  %26 = load ptr, ptr %6, align 8
  %27 = load i32, ptr %10, align 4
  %28 = call zeroext i8 @tvb_get_uint8(ptr noundef %26, i32 noundef %27)
  store i8 %28, ptr %11, align 1
  %29 = load i8, ptr %11, align 1
  %30 = zext i8 %29 to i32
  %31 = and i32 %30, 240
  %32 = ashr i32 %31, 4
  %33 = call ptr @val_to_str_const(i32 noundef %32, ptr noundef @for_req_type_strings, ptr noundef @.str.74)
  store ptr %33, ptr %13, align 8
  %34 = load ptr, ptr %8, align 8
  %35 = load i32, ptr @hf_ansi_801_cancellation_type, align 4
  %36 = load ptr, ptr %6, align 8
  %37 = load i32, ptr %10, align 4
  %38 = load i8, ptr %11, align 1
  %39 = zext i8 %38 to i32
  %40 = load i8, ptr %11, align 1
  %41 = zext i8 %40 to i32
  %42 = and i32 %41, 240
  %43 = ashr i32 %42, 4
  %44 = load ptr, ptr %13, align 8
  %45 = call ptr (ptr, i32, ptr, i32, i32, i32, ptr, ...) @proto_tree_add_uint_format_value(ptr noundef %34, i32 noundef %35, ptr noundef %36, i32 noundef %37, i32 noundef 1, i32 noundef %39, ptr noundef @.str.258, i32 noundef %43, ptr noundef %44)
  %46 = load ptr, ptr %8, align 8
  %47 = load i32, ptr @hf_ansi_801_no_outstanding_request_element, align 4
  %48 = load ptr, ptr %6, align 8
  %49 = load i32, ptr %10, align 4
  %50 = call ptr @proto_tree_add_item(ptr noundef %46, i32 noundef %47, ptr noundef %48, i32 noundef %49, i32 noundef 1, i32 noundef 0)
  %51 = load ptr, ptr %8, align 8
  %52 = load i32, ptr @hf_ansi_801_reserved8_07, align 4
  %53 = load ptr, ptr %6, align 8
  %54 = load i32, ptr %10, align 4
  %55 = call ptr @proto_tree_add_item(ptr noundef %51, i32 noundef %52, ptr noundef %53, i32 noundef %54, i32 noundef 1, i32 noundef 0)
  %56 = load i32, ptr %10, align 4
  %57 = add i32 %56, 1
  store i32 %57, ptr %10, align 4
  %58 = load i32, ptr %9, align 4
  %59 = load i32, ptr %10, align 4
  %60 = load i32, ptr %12, align 4
  %61 = sub i32 %59, %60
  %62 = icmp ugt i32 %58, %61
  br i1 %62, label %63, label %74

63:                                               ; preds = %25
  %64 = load ptr, ptr %8, align 8
  %65 = load ptr, ptr %7, align 8
  %66 = load ptr, ptr %6, align 8
  %67 = load i32, ptr %10, align 4
  %68 = load i32, ptr %9, align 4
  %69 = load i32, ptr %10, align 4
  %70 = load i32, ptr %12, align 4
  %71 = sub i32 %69, %70
  %72 = sub i32 %68, %71
  %73 = call ptr @proto_tree_add_expert(ptr noundef %64, ptr noundef %65, ptr noundef @ei_ansi_801_extraneous_data, ptr noundef %66, i32 noundef %67, i32 noundef %72)
  br label %74

74:                                               ; preds = %63, %25
  store i32 0, ptr %14, align 4
  br label %75

75:                                               ; preds = %74, %18
  call void @llvm.lifetime.end.p0(i64 8, ptr %13) #6
  call void @llvm.lifetime.end.p0(i64 4, ptr %12) #6
  call void @llvm.lifetime.end.p0(i64 1, ptr %11) #6
  %76 = load i32, ptr %14, align 4
  switch i32 %76, label %78 [
    i32 0, label %77
    i32 1, label %77
  ]

77:                                               ; preds = %75, %75
  ret void

78:                                               ; preds = %75
  unreachable
}